target datalayout = "e-m:e-p270:32:32-p271:32:32-p272:64:64-i64:64-i128:128-f80:128-n8:16:32:64-S128"
target triple = "x86_64-pc-linux-gnu"

@hf_gtpv2_spare_bytes = internal global i32 0, align 4
@hf_gtpv2_mbms_dist_indication = internal global i32 0, align 4

; Function Attrs: null_pointer_is_valid sspstrong uwtable
define internal void @dissect_gtpv2_mbms_dist_ack(ptr noundef %0, ptr noundef %1, ptr noundef %2, ptr noundef %3, i16 noundef zeroext %4, i8 noundef zeroext %5, i8 noundef zeroext %6, ptr noundef %7) #1 {
  %9 = alloca ptr, align 8
  %10 = alloca ptr, align 8
  %11 = alloca ptr, align 8
  %12 = alloca ptr, align 8
  %13 = alloca i16, align 2
  %14 = alloca i8, align 1
  %15 = alloca i8, align 1
  %16 = alloca ptr, align 8
  %17 = alloca i32, align 4
  store ptr %0, ptr %9, align 8
  store ptr %1, ptr %10, align 8
  store ptr %2, ptr %11, align 8
  store ptr %3, ptr %12, align 8
  store i16 %4, ptr %13, align 2
  store i8 %5, ptr %14, align 1
  store i8 %6, ptr %15, align 1
  store ptr %7, ptr %16, align 8
  call void @llvm.lifetime.start.p0(i64 4, ptr %17) #11
  store i32 0, ptr %17, align 4
  %18 = load ptr, ptr %11, align 8
  %19 = load i32, ptr @hf_gtpv2_mbms_dist_indication, align 4
  %20 = load ptr, ptr %9, align 8
  %21 = load i32, ptr %17, align 4
  %22 = call ptr @proto_tree_add_item(ptr noundef %18, i32 noundef %19, ptr noundef %20, i32 noundef %21, i32 noundef 1, i32 noundef 0)
  %23 = load i32, ptr %17, align 4
  %24 = add i32 %23, 1
  store i32 %24, ptr %17, align 4
  %25 = load i16, ptr %13, align 2
  %26 = zext i16 %25 to i32
  %27 = icmp sgt i32 %26, 1
  br i1 %27, label %28, label %37

28:                                               ; preds = %8
  %29 = load ptr, ptr %11, align 8
  %30 = load i32, ptr @hf_gtpv2_spare_bytes, align 4
  %31 = load ptr, ptr %9, align 8
  %32 = load i32, ptr %17, align 4
  %33 = load i16, ptr %13, align 2
  %34 = zext i16 %33 to i32
  %35 = sub i32 %34, 1
  %36 = call ptr @proto_tree_add_item(ptr noundef %29, i32 noundef %30, ptr noundef %31, i32 noundef %32, i32 noundef %35, i32 noundef 0)
  br label %37

37:                                               ; preds = %28, %8
  call void @llvm.lifetime.end.p0(i64 4, ptr %17) #11
  ret void
}